
build/task1:     file format elf32-loongarch
build/task1


Disassembly of section .text:

80000000 <_start>:
_start():
80000000:	15000217 	lu12i.w	$r23,-524272(0x80010)
80000004:	142468ac 	lu12i.w	$r12,74565(0x12345)
80000008:	0399e18c 	ori	$r12,$r12,0x678
8000000c:	142468ad 	lu12i.w	$r13,74565(0x12345)
80000010:	0399e1ad 	ori	$r13,$r13,0x678
80000014:	5c00f98d 	bne	$r12,$r13,248(0xf8) # 8000010c <fail_1>
80000018:	1c00002e 	pcaddu12i	$r14,1(0x1)
8000001c:	298002ee 	st.w	$r14,$r23,0
80000020:	0280040f 	addi.w	$r15,$r0,1(0x1)
80000024:	02bffdef 	addi.w	$r15,$r15,-1(0xfff)
80000028:	5c00e9e0 	bne	$r15,$r0,232(0xe8) # 80000110 <fail_2>
8000002c:	0383fc10 	ori	$r16,$r0,0xff
80000030:	03403e11 	andi	$r17,$r16,0xf
80000034:	02803c12 	addi.w	$r18,$r0,15(0xf)
80000038:	5c00de32 	bne	$r17,$r18,220(0xdc) # 80000114 <fail_3>
8000003c:	14000204 	lu12i.w	$r4,16(0x10)
80000040:	0388d084 	ori	$r4,$r4,0x234
80000044:	14000405 	lu12i.w	$r5,32(0x20)
80000048:	038004a5 	ori	$r5,$r5,0x1
8000004c:	00101486 	add.w	$r6,$r4,$r5
80000050:	14000607 	lu12i.w	$r7,48(0x30)
80000054:	0388d4e7 	ori	$r7,$r7,0x235
80000058:	5c00c0c7 	bne	$r6,$r7,192(0xc0) # 80000118 <fail_4>
8000005c:	0015148c 	or	$r12,$r4,$r5
80000060:	1400060d 	lu12i.w	$r13,48(0x30)
80000064:	0388d5ad 	ori	$r13,$r13,0x235
80000068:	5c00b58d 	bne	$r12,$r13,180(0xb4) # 8000011c <fail_5>
8000006c:	0015948e 	xor	$r14,$r4,$r5
80000070:	1400060f 	lu12i.w	$r15,48(0x30)
80000074:	0388d5ef 	ori	$r15,$r15,0x235
80000078:	037ffdef 	andi	$r15,$r15,0xfff
8000007c:	037ffdce 	andi	$r14,$r14,0xfff
80000080:	0288d410 	addi.w	$r16,$r0,565(0x235)
80000084:	5c009dd0 	bne	$r14,$r16,156(0x9c) # 80000120 <fail_6>
80000088:	02bffc11 	addi.w	$r17,$r0,-1(0xfff)
8000008c:	02800412 	addi.w	$r18,$r0,1(0x1)
80000090:	00124a33 	slt	$r19,$r17,$r18
80000094:	0280040c 	addi.w	$r12,$r0,1(0x1)
80000098:	5c008e6c 	bne	$r19,$r12,140(0x8c) # 80000124 <fail_7>
8000009c:	1500000d 	lu12i.w	$r13,-524288(0x80000)
800000a0:	004885ae 	srai.w	$r14,$r13,0x1
800000a4:	1580000f 	lu12i.w	$r15,-262144(0xc0000)
800000a8:	5c0081cf 	bne	$r14,$r15,128(0x80) # 80000128 <fail_8>
800000ac:	14000238 	lu12i.w	$r24,17(0x11)
800000b0:	03844718 	ori	$r24,$r24,0x111
800000b4:	298012f8 	st.w	$r24,$r23,4(0x4)
800000b8:	288012f9 	ld.w	$r25,$r23,4(0x4)
800000bc:	5c007319 	bne	$r24,$r25,112(0x70) # 8000012c <fail_9>
800000c0:	0282001a 	addi.w	$r26,$r0,128(0x80)
800000c4:	290022fa 	st.b	$r26,$r23,8(0x8)
800000c8:	280022fb 	ld.b	$r27,$r23,8(0x8)
800000cc:	02be001c 	addi.w	$r28,$r0,-128(0xf80)
800000d0:	5c00637c 	bne	$r27,$r28,96(0x60) # 80000130 <fail_10>
800000d4:	0281540c 	addi.w	$r12,$r0,85(0x55)
800000d8:	0281540d 	addi.w	$r13,$r0,85(0x55)
800000dc:	5800098d 	beq	$r12,$r13,8(0x8) # 800000e4 <beq_taken>
800000e0:	58005400 	beq	$r0,$r0,84(0x54) # 80000134 <fail_11>

800000e4 <beq_taken>:
beq_taken():
800000e4:	0280040e 	addi.w	$r14,$r0,1(0x1)
800000e8:	0280080f 	addi.w	$r15,$r0,2(0x2)
800000ec:	5c0009cf 	bne	$r14,$r15,8(0x8) # 800000f4 <bne_taken>
800000f0:	58004800 	beq	$r0,$r0,72(0x48) # 80000138 <fail_12>

800000f4 <bne_taken>:
bne_taken():
800000f4:	02800410 	addi.w	$r16,$r0,1(0x1)
800000f8:	02bffc11 	addi.w	$r17,$r0,-1(0xfff)
800000fc:	64000a11 	bge	$r16,$r17,8(0x8) # 80000104 <bge_taken>
80000100:	58003c00 	beq	$r0,$r0,60(0x3c) # 8000013c <fail_13>

80000104 <bge_taken>:
bge_taken():
80000104:	80000000 	0x80000000

80000108 <fail_0>:
fail_0():
80000108:	00000000 	0x00000000

8000010c <fail_1>:
fail_1():
8000010c:	00000001 	0x00000001

80000110 <fail_2>:
fail_2():
80000110:	00000002 	0x00000002

80000114 <fail_3>:
fail_3():
80000114:	00000003 	0x00000003

80000118 <fail_4>:
fail_4():
80000118:	00000004 	0x00000004

8000011c <fail_5>:
fail_5():
8000011c:	00000005 	0x00000005

80000120 <fail_6>:
fail_6():
80000120:	00000006 	0x00000006

80000124 <fail_7>:
fail_7():
80000124:	00000007 	0x00000007

80000128 <fail_8>:
fail_8():
80000128:	00000008 	0x00000008

8000012c <fail_9>:
fail_9():
8000012c:	00000009 	0x00000009

80000130 <fail_10>:
fail_10():
80000130:	0000000a 	0x0000000a

80000134 <fail_11>:
fail_11():
80000134:	0000000b 	0x0000000b

80000138 <fail_12>:
fail_12():
80000138:	0000000c 	0x0000000c

8000013c <fail_13>:
fail_13():
8000013c:	0000000d 	0x0000000d

Disassembly of section .data:

80010000 <result_area>:
result_area():
80010000:	00000000 	0x00000000
